; Function Attrs: mustprogress uwtable
define internal void @_ZN9grpc_core12_GLOBAL__N_16GrpcLb6Picker21SubchannelCallTracker5StartEv(ptr noundef nonnull align 8 captures(none) dereferenceable(24) initializes((8, 16)) %0) unnamed_addr #3 align 2 personality ptr @__gxx_personality_v0 {
  %2 = getelementptr inbounds nuw i8, ptr %0, i64 16
  %3 = load ptr, ptr %2, align 8, !tbaa !615
  %.not = icmp eq ptr %3, null
  br i1 %.not, label %8, label %4

4:                                                ; preds = %1
  %5 = load ptr, ptr %3, align 8, !tbaa !6
  %6 = getelementptr inbounds nuw i8, ptr %5, i64 16
  %7 = load ptr, ptr %6, align 8
  tail call void %7(ptr noundef nonnull align 8 dereferenceable(8) %3)
  br label %8

8:                                                ; preds = %4, %1
  %9 = getelementptr inbounds nuw i8, ptr %0, i64 8
  store ptr null, ptr %9, align 8, !tbaa !549
  ret void
}